; Function Attrs: mustprogress nofree norecurse nosync nounwind willreturn memory(read, inaccessiblemem: none) uwtable
define noundef zeroext i1 @_ZN6casadi17is_equally_spacedERKSt6vectorIdSaIdEE(ptr noundef nonnull readonly align 8 captures(none) dereferenceable(24) %0) local_unnamed_addr #8 {
  %2 = getelementptr inbounds nuw i8, ptr %0, i64 8
  %3 = load ptr, ptr %2, align 8, !tbaa !60
  %4 = load ptr, ptr %0, align 8, !tbaa !63
  %5 = ptrtoint ptr %3 to i64
  %6 = ptrtoint ptr %4 to i64
  %7 = sub i64 %5, %6
  %8 = ashr exact i64 %7, 3
  %9 = icmp ult i64 %8, 3
  br i1 %9, label %.critedge, label %10

10:                                               ; preds = %1
  %11 = getelementptr inbounds i8, ptr %3, i64 -8
  %12 = load double, ptr %11, align 8, !tbaa !64
  %13 = load double, ptr %4, align 8, !tbaa !64
  %14 = fsub double %12, %13
  %15 = fmul double %14, 0x3D06849B86A12B9B
  %16 = getelementptr inbounds nuw i8, ptr %4, i64 8
  %17 = load double, ptr %16, align 8, !tbaa !64
  %18 = fsub double %17, %13
  %invariant.gep = getelementptr i8, ptr %4, i64 -8
  br label %19

19:                                               ; preds = %19, %10
  %.01517 = phi i64 [ 2, %10 ], [ %27, %19 ]
  %20 = getelementptr inbounds nuw double, ptr %4, i64 %.01517
  %21 = load double, ptr %20, align 8, !tbaa !64
  %gep = getelementptr double, ptr %invariant.gep, i64 %.01517
  %22 = load double, ptr %gep, align 8, !tbaa !64
  %23 = fsub double %21, %22
  %24 = fsub double %23, %18
  %25 = tail call double @llvm.fabs.f64(double %24)
  %26 = fcmp ule double %25, %15
  %27 = add nuw i64 %.01517, 1
  %exitcond.not = icmp ne i64 %27, %8
  %or.cond.not = select i1 %26, i1 %exitcond.not, i1 false
  br i1 %or.cond.not, label %19, label %.critedge, !llvm.loop !66

.critedge:                                        ; preds = %19, %1
  %.016 = phi i1 [ true, %1 ], [ %26, %19 ]
  ret i1 %.016
}